.text	

.globl	_add_mod_pasta
.private_extern	_add_mod_pasta

.p2align	5
_add_mod_pasta:
.cfi_startproc
	.byte	0xf3,0x0f,0x1e,0xfa


	pushq	%rbp
.cfi_adjust_cfa_offset	8
.cfi_offset	%rbp,-16
	pushq	%rbx
.cfi_adjust_cfa_offset	8
.cfi_offset	%rbx,-24
	subq	$8,%rsp
.cfi_adjust_cfa_offset	8


	movq	0(%rsi),%r8
	movq	8(%rsi),%r9
	movq	16(%rsi),%r10
	movq	24(%rsi),%r11

L$oaded_a_add_mod_pasta:
	addq	0(%rdx),%r8
	adcq	8(%rdx),%r9
	movq	%r8,%rax
	adcq	16(%rdx),%r10
	movq	%r9,%rsi
	adcq	24(%rdx),%r11
	sbbq	%rdx,%rdx

	movq	%r10,%rbx
	subq	0(%rcx),%r8
	sbbq	8(%rcx),%r9
	sbbq	16(%rcx),%r10
	movq	%r11,%rbp
	sbbq	24(%rcx),%r11
	sbbq	$0,%rdx

	cmovcq	%rax,%r8
	cmovcq	%rsi,%r9
	movq	%r8,0(%rdi)
	cmovcq	%rbx,%r10
	movq	%r9,8(%rdi)
	cmovcq	%rbp,%r11
	movq	%r10,16(%rdi)
	movq	%r11,24(%rdi)

	movq	8(%rsp),%rbx
.cfi_restore	%rbx
	movq	16(%rsp),%rbp
.cfi_restore	%rbp
	leaq	24(%rsp),%rsp
.cfi_adjust_cfa_offset	-24

	.byte	0xf3,0xc3
.cfi_endproc	



.globl	_sub_mod_pasta
.private_extern	_sub_mod_pasta

.p2align	5
_sub_mod_pasta:
.cfi_startproc
	.byte	0xf3,0x0f,0x1e,0xfa


	pushq	%rbp
.cfi_adjust_cfa_offset	8
.cfi_offset	%rbp,-16
	pushq	%rbx
.cfi_adjust_cfa_offset	8
.cfi_offset	%rbx,-24
	subq	$8,%rsp
.cfi_adjust_cfa_offset	8


	movq	0(%rsi),%r8
	movq	8(%rsi),%r9
	movq	16(%rsi),%r10
	movq	24(%rsi),%r11

	subq	0(%rdx),%r8
	movq	0(%rcx),%rax
	sbbq	8(%rdx),%r9
	movq	8(%rcx),%rsi
	sbbq	16(%rdx),%r10
	movq	16(%rcx),%rbx
	sbbq	24(%rdx),%r11
	movq	24(%rcx),%rbp
	sbbq	%rdx,%rdx

	andq	%rdx,%rax
	andq	%rdx,%rsi
	andq	%rdx,%rbx
	andq	%rdx,%rbp

	addq	%rax,%r8
	adcq	%rsi,%r9
	movq	%r8,0(%rdi)
	adcq	%rbx,%r10
	movq	%r9,8(%rdi)
	adcq	%rbp,%r11
	movq	%r10,16(%rdi)
	movq	%r11,24(%rdi)

	movq	8(%rsp),%rbx
.cfi_restore	%rbx
	movq	16(%rsp),%rbp
.cfi_restore	%rbp
	leaq	24(%rsp),%rsp
.cfi_adjust_cfa_offset	-24

	.byte	0xf3,0xc3
.cfi_endproc	

